; Function Attrs: nounwind sspstrong uwtable
define internal range(i64 1, 0) i64 @parser_dedent_string(i64 %0, i64 noundef %1, i64 noundef %2) #0 {
  %4 = alloca i64, align 8
  store i64 %1, ptr %4, align 8, !tbaa !6
  %5 = call i64 @rb_string_value(ptr noundef nonnull %4) #5
  %6 = call i64 @rb_num2uint(i64 noundef %2) #5
  %7 = trunc i64 %6 to i32
  %8 = load i64, ptr %4, align 8, !tbaa !6
  %9 = call ptr @rb_str_to_parser_string(ptr noundef null, i64 noundef %8) #5
  %10 = call i32 @rb_ruby_ripper_dedent_string(ptr noundef null, ptr noundef %9, i32 noundef %7) #5
  %11 = call i64 @rb_str_new_parser_string(ptr noundef %9) #5
  %12 = call i64 @rb_str_replace(i64 noundef %8, i64 noundef %11) #5
  call void @rb_parser_string_free(ptr noundef null, ptr noundef %9) #5
  %13 = sext i32 %10 to i64
  %14 = shl nsw i64 %13, 1
  %15 = or disjoint i64 %14, 1
  ret i64 %15
}